(dp0
S'tagprogress'
p1
(dp2
S'/home/robin/music/Bomb the Music Industry!'
p3
S'/home/robin/music/Bomb the Music Industry!/Album Minus Band MP3'
p4
sS'/home/robin/music/Andrew Jackson'
p5
S"/home/robin/music/Andrew Jackson/Can't Maintain"
p6
ssS'taghistory'
p7
c__builtin__
set
p8
((lp9
S'/home/robin/music/N.W.A/Straight Outta Compton'
p10
aS'/home/robin/music/Sufjan Stevens/Greetings From Michigan_ The Great Lakes'
p11
aS"/home/robin/music/World's End Girlfriend/Seven Idiots"
p12
aS'/home/robin/music/Nujabes/Metaphorical Music'
p13
aS'/home/robin/music/Ludwig van Beethoven/Misc. Beethoven - Philharmonia Slavonica'
p14
aS'/home/robin/music/Ratatat/LP4'
p15
aS'/home/robin/music/Pavement/Quarantine the Past'
p16
aS'/home/robin/music/Sufjan Stevens/Michigan'
p17
aS'/home/robin/music/Dvor\xc3\xa1k/The Masterpiece Collection'
p18
aS'/home/robin/music/Thom Yorke/The Eraser'
p19
aS'/home/robin/music/Compilations/Samurai Champloo Music Record- Masta'
p20
aS'/home/robin/music/LITE/Filmlets'
p21
aS'/home/robin/music/The National/Alligator'
p22
aS'/home/robin/music/miss A/Bad but Good'
p23
aS'/home/robin/music/Andrew Jackson/Issue Problems'
p24
aS'/home/robin/music/Broken Social Scene/Broken Social Scene'
p25
aS'/home/robin/music/Pixies/Doolittle'
p26
aS'/home/robin/music/Bluedawn/Submarine Sickness + Waveless'
p27
aS'/home/robin/music/James Blake/CMYK EP'
p28
aS'/home/robin/music/Dark Was The Night - 2009 (rhsiv)'
p29
aS'/home/robin/music/Weezer/Pinkerton'
p30
aS'/home/robin/music/Vampire Weekend/Vampire Weekend'
p31
aS'/home/robin/music/Anton\xc3\xadn Dvo\xc5\x99\xc3\xa1k/The Best of Dvo\xc5\x99\xc3\xa1k'
p32
aS'/home/robin/music/Andrew Jackson/People that can eat People are the Luckiest People in the World'
p33
aS'/home/robin/music/Girl Talk/All Day'
p34
aS'/home/robin/music/Reverie Sound Revue/Reverie Sound Revue'
p35
aS'/home/robin/music/Madlib/Shades of Blue'
p36
aS'/home/robin/music/WHY_/Elephant Eyelash'
p37
aS'/home/robin/music/Godspeed You! Black Emperor/Yanqui U.X.O'
p38
aS'/home/robin/music/Neutral Milk Hotel/In the Aeroplane Over the Sea'
p39
aS'/home/robin/music/James Blake/[2010] CMYK'
p40
aS'/home/robin/music/Panda Bear/Panda Bear - Young Prayer (2004)'
p41
aS'/home/robin/music/Animal Collective/Campfire Songs'
p42
aS'/home/robin/music/Beirut/March of the Zapotec-Holland'
p43
aS'/home/robin/music/toe/Songs, Ideas We Forgot'
p44
aS'/home/robin/music/Explosions in the Sky/Those Who Tell the Truth Shall Die, Those Who Tell the Truth Shall Live Forever'
p45
aS'/home/robin/music/Samurai Champloo Music Record/Impression'
p46
aS'/home/robin/music/Girl Talk/Feed the Animals'
p47
aS'/home/robin/music/Godspeed You! Black Emperor/F#A#\xe2\x88\x9e'
p48
aS'/home/robin/music/Girl Talk/All Day (IC123)'
p49
aS'/home/robin/music/Snowing/Fuck Your Emotional Bullshit'
p50
aS'/home/robin/music/Mouse on the Keys/Sezession'
p51
aS'/home/robin/music/The Arrogant Sons of Bitches/This Is What You Get'
p52
aS'/home/robin/music/American Football/American Football'
p53
aS'/home/robin/music/Arcade Fire/Funeral'
p54
aS'/home/robin/music/Death Cab for Cutie/Transatlanticism'
p55
aS'/home/robin/music/Bloc Party/A Weekend In The City'
p56
aS'/home/robin/music/Weezer/[non-album tracks]'
p57
aS'/home/robin/music/Ratatat/Ratatat Presents- Remixes, Volume 2'
p58
aS'/home/robin/music/Tokimonsta/Cosmic Intoxication EP'
p59
aS'/home/robin/music/\xed\x91\xb8\xeb\xa5\xb8\xec\x83\x88\xeb\xb2\xbd/Submarine Sickness + Waveless'
p60
aS'/home/robin/music/Panda Bear/Young Prayer'
p61
aS"/home/robin/music/world's end girlfriend/Dream's End Come True"
p62
aS'/home/robin/music/Modest Mouse/The Moon & Antarctica [Bonus Tracks]'
p63
aS'/home/robin/music/Samurai Champloo Music Record/Departure'
p64
aS'/home/robin/music/Various Artists/Dvo\xc5\x99\xc3\xa1k_ The Masterpiece Collection'
p65
aS'/home/robin/music/Animal Collective/Sung Tongs'
p66
aS'/home/robin/music/Beethoven/Beethoven - Moonlight - Appass'
p67
aS'/home/robin/music/\xe6\xa4\x8e\xe5\x90\x8d\xe6\x9e\x97\xe6\xaa\x8e/\xe5\x8a\xa0\xe7\x88\xbe\xe5\x9f\xba \xe7\xb2\xbe\xe6\xb6\xb2 \xe6\xa0\x97\xe3\x83\x8e\xe8\x8a\xb1'
p68
aS'/home/robin/music/Modest Mouse/Lonsome Crowded West'
p69
aS'/home/robin/music/A Tribe Called Quest/The Low End Theory'
p70
aS'/home/robin/music/MGMT/Oracular Spectacular'
p71
aS'/home/robin/music/Kind of Like Spitting/Bridges Worth Burning'
p72
aS"/home/robin/music/Iron & Wine/The Shepherd's Dog"
p73
aS'/home/robin/music/Los Campesinos!/Hold On Now, Youngster...'
p74
aS'/home/robin/music/Andrew Jackson/Operation Stackola'
p75
aS'/home/robin/music/Neutral Milk Hotel/In The Aeroplane Over The Sea'
p76
aS'/home/robin/music/Godspeed You! Black Emperor/F\xe2\x99\xaf A\xe2\x99\xaf \xe2\x88\x9e'
p77
aS'/home/robin/music/Sigur R\xc3\xb3s/\xc3\x81g\xc3\xa6tis byrjun'
p78
aS'/home/robin/music/Kashiwa Daisuke/april.#02'
p79
aS'/home/robin/music/Sigur R\xc3\xb3s/Takk...'
p80
aS'/home/robin/music/Kevin Drew/Broken Social Scene Presents- Spirit If...'
p81
aS'/home/robin/music/Vladimir Ashkenazy/Sonata Anh Trang'
p82
aS'/home/robin/music/Los Campesinos!/Hold On Now, Youngster'
p83
aS'/home/robin/music/Broken Social Scene/EP To Be You And Me'
p84
aS'/home/robin/music/Kind Of Like Spitting/In the Red'
p85
aS'/home/robin/music/Radiohead/In Rainbows/Disc 1'
p86
aS'/home/robin/music/Kind Of Like Spitting/You Secretely Want Me Dead'
p87
aS'/home/robin/music/Panda Bear/Person Pitch'
p88
aS'/home/robin/music/Ben Barnett/Songs About Zombies and Trust Issues'
p89
aS'/home/robin/music/Wonder GIrls/The Wonder Years'
p90
aS'/home/robin/music/Nujabes/Hydeout Productions 2nd Collection'
p91
aS'/home/robin/music/Blazo/Alone Journey'
p92
aS'/home/robin/music/\xe6\x8a\xbc\xe5\xb0\xbe\xe3\x82\xb3\xe3\x83\xbc\xe3\x82\xbf\xe3\x83\xad\xe3\x83\xbc/Tussie mussie'
p93
aS'/home/robin/music/Brown Eyed Girls/\xeb\x96\xa0\xeb\x82\x98\xeb\x9d\xbc \xeb\xaf\xb8\xec\x8a\xa4\xea\xb9\x80'
p94
aS'/home/robin/music/Sigur R\xc3\xb3s/( )'
p95
aS'/home/robin/music/Fr\xc3\xa9d\xc3\xa9ric Chopin'
p96
aS'/home/robin/music/Tchaikovksky/Brahms, Tchaikovsky, & Bach'
p97
aS'/home/robin/music/\xec\x86\x8c\xeb\x85\x80\xec\x8b\x9c\xeb\x8c\x80/Oh!'
p98
aS'/home/robin/music/Why/Alopecia'
p99
aS'/home/robin/music/Various Artists/Modal Soul Classics II_ Dedicated To Nujabes'
p100
aS'/home/robin/music/Chopin/Masters of Classical Music- Chopin'
p101
aS'/home/robin/music/Kashiwa Daisuke/Program Music I'
p102
aS'/home/robin/music/Bomb the Music Industry!/To Leave or Die in Long Island'
p103
aS'/home/robin/music/Flight of the Conchords/Folk the World Tour'
p104
aS'/home/robin/music/Beirut/Lon Gisland EP'
p105
aS'/home/robin/music/Why/Elephant Eyelash'
p106
aS'/home/robin/music/Kind Of Like Spitting/Nothing Makes Sense Without'
p107
aS'/home/robin/music/toe/For Long Tomorrow'
p108
aS'/home/robin/music/\xe5\xa4\xa7\xe8\xb0\xb7\xe5\xb9\xb8/Wander and the Colossus- Roar of the Earth'
p109
aS'/home/robin/music/Kashiwa Daisuke/5 Dec'
p110
aS'/home/robin/music/She & Him/Volume Two'
p111
aS'/home/robin/music/etc'
p112
aS'/home/robin/music/Compilations/Samurai Champloo Music Record- Departure'
p113
aS'/home/robin/music/Malegoat/Plan Infiltration'
p114
aS'/home/robin/music/Novi Split/Pink in the Sink'
p115
aS'/home/robin/music/Sigur R\xc3\xb3s/Agaetis Byrjun'
p116
aS'/home/robin/music/Paul Dateh/Paul Dateh'
p117
aS'/home/robin/music/Toe/RGBDVD'
p118
aS'/home/robin/music/Shiina Ringo/Karuki Zamen Kuri no Hana'
p119
aS'/home/robin/music/Godspeed You! Black Emperor/Lift Your Skinny Fists Like Antennas to Heaven'
p120
aS"/home/robin/music/Animal Collective/Spirit They're Gone, Spirit They've Vanished"
p121
aS'/home/robin/music/Grouper/Dragging A Dead Deer Up A Hill/Grouper - Dragging A Dead Deer Up A Hill'
p122
aS'/home/robin/music/T\xc3\xa9/\xe3\x81\xbe\xe3\x81\x97\xe3\x81\xa6\xe3\x80\x81\xe5\xbf\x83\xe3\x81\xa8\xe4\xba\x94\xe6\x84\x9f\xe3\x81\x8c\xe4\xb8\x80\xe8\x87\xb4\xe3\x81\x99\xe3\x82\x8b\xe3\x81\xaa\xe3\x82\x89\xe5\x85\xa8\xe3\x81\xa6\xe6\x9c\x80\xe4\xb8\x8a\xe3\x81\xae\xe3\x80\x8e\xe9\x9f\xb3\xe6\xa5\xbd\xe3\x80\x8f\xe3\x81\xab\xe5\xa4\x89\xe3\x81\x9a\xe3\x82\x8b\xe3\x80\x82'
p123
aS'/home/robin/music/Snowing/Fuck Your Emotional Bullshit [EP]'
p124
aS'/home/robin/music/Samurai Champloo Music Record/Playlist'
p125
aS'/home/robin/music/The National/Cherry Tree'
p126
aS'/home/robin/music/Paul Dateh/Misc'
p127
aS'/home/robin/music/Kind Of Like Spitting/One Hundred Dollar Room'
p128
aS'/home/robin/music/\xec\x86\x8c\xeb\x85\x80\xec\x8b\x9c\xeb\x8c\x80/Gee'
p129
aS'/home/robin/music/Broken Social Scene/You Forgot It in People'
p130
aS'/home/robin/music/Max Richter/infra'
p131
aS'/home/robin/music/Bloc Party/Silent Alarm'
p132
aS'/home/robin/music/The Bad Plus/These Are the Vistas'
p133
aS'/home/robin/music/Samurai Champloo Music Record/Katana'
p134
aS'/home/robin/music/Reverie Sound Revue'
p135
aS'/home/robin/music/Animal Collective/Strawberry Jam'
p136
aS'/home/robin/music/Sleigh Bells/Treats'
p137
aS'/home/robin/music/TOKiMONSTA/Cosmic Intoxication'
p138
aS'/home/robin/music/nuito/Unutella'
p139
aS'/home/robin/music/Girl Talk/Night Ripper'
p140
aS'/home/robin/music/Sufjan Stevens/Illinois'
p141
aS'/home/robin/music/Flight of the Chonchords/Folk the World Tour'
p142
aS'/home/robin/music/Explosions in the Sky/The Rescue'
p143
aS'/home/robin/music/Bon Iver/Blood Bank'
p144
aS'/home/robin/music/The Pains of Being Pure at Heart/The Pains of Being Pure at Heart'
p145
aS'/home/robin/music/Bomb the Music Industry!/Goodbye Cool World'
p146
aS'/home/robin/music/Shugo Tokumaru/Exit'
p147
aS'/home/robin/music/miss A/Step Up'
p148
aS'/home/robin/music/Brown Eyed Girls/Sound G. Sign'
p149
aS"/home/robin/music/Iron and Wine/The Shepherd's Dog"
p150
aS'/home/robin/music/Kotaro Oshio/Kotaro Oshio - (2004-2) BOLERO! Be HAPPY LIVE'
p151
aS'/home/robin/music/James Blake/[2011] James Blake'
p152
aS'/home/robin/music/A Tribe Called Quest/Midnight Marauders'
p153
aS'/home/robin/music/Pavement/Quarantine the Past- The Best of Pavement'
p154
aS'/home/robin/music/Kind of Like Spitting/Nothing Makes Sense Without It'
p155
aS'/home/robin/music/James Blake/[2010] Klavierwerke'
p156
aS'/home/robin/music/Malegoat/To Face the Music'
p157
aS"/home/robin/music/WHY_/Almost Live From Eli's Room"
p158
aS'/home/robin/music/Wu-Tang Clan/Enter the Wu-Tang_ 36 Chambers'
p159
aS'/home/robin/music/Brown Eyed Girls/Your Story'
p160
aS'/home/robin/music/Emancipator/Safe in the Steep Cliffs'
p161
aS"/home/robin/music/Girls' Generation/Oh!"
p162
aS'/home/robin/music/Mono/Holy Ground - NYC Live'
p163
aS'/home/robin/music/Last Dinosaurs/Back From the Dead EP'
p164
aS'/home/robin/music/Ratatat feat. Brooklyn Zoo'
p165
aS'/home/robin/music/Mouse on the Keys/An Anxious Object'
p166
aS'/home/robin/music/Bomb the Music Industry!/Adults!!!- Smart!!! Shithammered!!! And Excited By Nothing!!!!!!!'
p167
aS'/home/robin/music/Why/Eskimo Snow'
p168
aS'/home/robin/music/Vladimir Ashkenazy/The Piano Sonatas'
p169
aS'/home/robin/music/Radiohead/Kid A'
p170
aS'/home/robin/music/Madvillain/Shades of Blue'
p171
aS'/home/robin/music/Godspeed You! Black Emperor/Yanqui U.X.O.'
p172
aS'/home/robin/music/Ratatat/Ratatat Remixes Mixtape Vol. 1'
p173
aS'/home/robin/music/Broken Social Scene/Bee Hives'
p174
aS'/home/robin/music/Last Dinosaurs/Back From the Dead'
p175
aS'/home/robin/music/She & Him/Volume One'
p176
aS'/home/robin/music/Nomak/Fantastical View'
p177
aS'/home/robin/music/Andrew Jackson/Candy Cigarettes & Cap Guns'
p178
aS'/home/robin/music/John Coltrane/A Love Supreme'
p179
aS"/home/robin/music/World's End Girlfriend/Dreams End Come True"
p180
aS'/home/robin/music/Various Artists/Dark Was The Night'
p181
aS'/home/robin/music/Anton\xc3\xadn Dvo\xc5\x99\xc3\xa1k/The Essential Dvo\xc5\x99\xc3\xa1k'
p182
aS'/home/robin/music/Beirut/March of the Zapotec _ Holland'
p183
aS'/home/robin/music/Kind Of Like Spitting/The Thrill Of The Hunt'
p184
aS'/home/robin/music/Animal Collective/Water Curses'
p185
aS'/home/robin/music/WHY_/Eskimo Snow'
p186
aS'/home/robin/music/Kind of Like Spitting/In the Red'
p187
aS'/home/robin/music/Animal Collective/Feels'
p188
aS'/home/robin/music/Grizzly Bear/Veckatimest'
p189
aS'/home/robin/music/Kashiwa Daisuke/5 Dec.'
p190
aS'/home/robin/music/Sufjan Stevens/Come On Feel The Illinoise!'
p191
aS'/home/robin/music/Bomb the Music Industry!/Scrambles'
p192
aS"/home/robin/music/world's end girlfriend/SEVEN IDIOTS"
p193
aS'/home/robin/music/Compilations/Ligeti & N\xc3\xb8rg\xc3\xa5rd- Violin Concertos, etc.'
p194
aS'/home/robin/music/Suzumiya Haruhi no Gensou'
p195
aS'/home/robin/music/Broken Social Scene/E.P. to Be You and Me'
p196
aS'/home/robin/music/Wonder Girls/THE WONDER YEARS!'
p197
aS"/home/robin/music/Elliott Smith/Elliott Smith's Covers"
p198
aS'/home/robin/music/Bomb the Music Industry!/Get Warmer'
p199
aS'/home/robin/music/Bomb the Music Industry!/Adults!!!... Smart!!! Shithammered!!! And Excited By Nothing!!!!!!!'
p200
aS'/home/robin/music/\xed\x91\xb8\xeb\xa5\xb8\xec\x83\x88\xeb\xb2\xbd/\xeb\xb3\xb4\xec\x98\xb4\xec\x9d\xb4 \xec\x98\xa4\xeb\xa9\xb4'
p201
aS'/home/robin/music/Max Richter/Infra'
p202
aS"/home/robin/music/Why_/Almost Live From Eli's Live Room"
p203
aS'/home/robin/music/Algernon Cadwallader/Some Kind of Cadwallader'
p204
aS'/home/robin/music/Pains of Being Pure at Heart/Higher than the Stars EP'
p205
aS'/home/robin/music/\xe6\x8a\xbc\xe5\xb0\xbe\xe3\x82\xb3\xe3\x83\xbc\xe3\x82\xbf\xe3\x83\xad\xe3\x83\xbc/Nature Spirit'
p206
aS'/home/robin/music/Nujabes; Uyama Hiroto/Hydeout Productions 2nd Collection'
p207
aS'/home/robin/music/Four Tet/Rounds'
p208
aS'/home/robin/music/Four Tet/There Is Love in You'
p209
aS'/home/robin/music/cLOUDDEAD/Ten'
p210
aS"/home/robin/music/Andrew Jackson/Can't Maintain"
p211
aS'/home/robin/music/Bloc Party/Intimacy'
p212
aS'/home/robin/music/Andrew Jackson/Ghost Mice Split'
p213
aS'/home/robin/music/Sigur R\xc3\xb3s/Takk'
p214
aS'/home/robin/music/cLOUDDEAD/cLOUDDEAD'
p215
aS'/home/robin/music/Bloc Party/A Weekend in the City'
p216
aS'/home/robin/music/Washed Out/Life of Leisure'
p217
aS'/home/robin/music/Kind Of Like Spitting/Bridges Worth Burning'
p218
aS'/home/robin/music/Gorillaz/Plastic Beach'
p219
aS'/home/robin/music/Hey Ocean!/Stop Looking Like Music'
p220
aS'/home/robin/music/Compilations/Samurai Champloo Music Record- Impression'
p221
aS'/home/robin/music/Los Campesinos!/We Are Beautiful, We Are Doomed'
p222
aS'/home/robin/music/Johann Sebastian Bach/Cantatas, Volume 31 (Bach Collegium Japan feat. conductor- Masaaki Suzuki)'
p223
aS'/home/robin/music/Tokyo Police Club/A Lesson In Crime'
p224
aS'/home/robin/music/Kotaro Oshio/Kotaro Oshio - 2009 - Tussie Mussie [320K]'
p225
aS'/home/robin/music/Pavement/Crooked Rain, Crooked Rain'
p226
aS'/home/robin/music/Samurai Champloo Music Record/Masta'
p227
aS'/home/robin/music/Brian Eno/Ambient 1- Music for Airports'
p228
aS"/home/robin/music/Cap'n Jazz/Analphabetapolothology (Disc 2)"
p229
aS'/home/robin/music/Brown Eyed Girls/Vol. 2.'
p230
aS'/home/robin/music/Radiohead/In Rainbows'
p231
aS'/home/robin/music/Stars/Set Yourself on Fire'
p232
aS'/home/robin/music/The National/Sad Songs for Dirty Lovers'
p233
aS'/home/robin/music/Godspeed You! Black Emperor/Lift Yr. Skinny Fists Like Antennas to Heaven!'
p234
aS'/home/robin/music/MONO/Holy Ground- NYC Live With The Wordless Music Orchestra'
p235
aS'/home/robin/music/Phoenix/United'
p236
aS'/home/robin/music/toe/New Sentimentality'
p237
aS"/home/robin/music/Death From Above 1979/You're a Woman, I'm a Machine"
p238
aS'/home/robin/music/Radiohead/Pablo Honey'
p239
aS'/home/robin/music/The Bad Plus/These Are The Vistas'
p240
aS'/home/robin/music/Nujabes/Modal Soul'
p241
aS'/home/robin/music/Toe/For Long Tomorrow'
p242
aS'/home/robin/music/Beirut/The Flying Club Cup'
p243
aS'/home/robin/music/Kotaro Oshio/Kotaro Oshio - Nature Spirit [MP3][2008.01.01]'
p244
aS'/home/robin/music/Johann Sebastian Bach/Bach, Brahms & Tchaikovsky- Violin Concertos _ Beethoven- Romances (David Oistrakh)'
p245
aS'/home/robin/music/Blunt Mechanic/World Record'
p246
aS'/home/robin/music/Truls M\xc3\xb8rk/Russian Cello Sonatas (cello- Truls M\xc3\xb8rk)'
p247
aS'/home/robin/music/\xe6\x84\x9b\xe5\x86\x85\xe9\x87\x8c\xe8\x8f\x9c/Be Happy'
p248
aS'/home/robin/music/Tokyo Police Club/A Lesson in Crime'
p249
aS'/home/robin/music/LITE/Phantasia'
p250
aS'/home/robin/music/Bon Iver/For Emma, Forever Ago'
p251
aS'/home/robin/music/Radiohead/The Bends'
p252
aS'/home/robin/music/Kotaro Oshio/2004 Kotaro Oshio - Be HAPPY'
p253
aS'/home/robin/music/Deltron 3030/Deltron 3030'
p254
aS'/home/robin/music/Frank Peter Zimmermann & Alexander Lonquich/Auric _ Fran\xc3\xa7aix _ Milhaud _ Poulenc _ Satie- Werke f\xc3\xbcr Violine und Klavier (violin- Frank Peter Zimmermann, piano- Alexander Lonquich)'
p255
aS'/home/robin/music/Broken Social Scene/Spirit If'
p256
aS'/home/robin/music/Broken Social Scene/Feel Good Lost'
p257
aS'/home/robin/music/Tokimonsta/Bedtime Lullabies'
p258
aS'/home/robin/music/Modest Mouse/The Lonesome Crowded West'
p259
aS'/home/robin/music/This Will Destroy You/Young Mountain'
p260
aS'/home/robin/music/Ghostmice + Andrew Jackson Jihad/Ghostmice + Andrew Jackson Jihad Split'
p261
aS'/home/robin/music/Neutral Milk Hotel/On Avery Island'
p262
aS'/home/robin/music/Panda Bear/No. 12 Person Pitch [2007]'
p263
aS"/home/robin/music/Cap'n Jazz/Analphabetapolothology"
p264
aS'/home/robin/music/Kind of Like Spitting/$100 Room'
p265
aS'/home/robin/music/Broken Social Scene/Forgiveness Rock Record'
p266
aS'/home/robin/music/Kashiwa Daisuke/program music I'
p267
aS'/home/robin/music/Frightened Rabbit/The Midnight Organ Fight'
p268
aS'/home/robin/music/Beirut/Lon Gisland'
p269
aS'/home/robin/music/Nas/Illmatic'
p270
aS'/home/robin/music/Bluedawn/When Spring Comes'
p271
aS'/home/robin/music/Phoenix/Wolfgang Amadeus Phoenix'
p272
aS"/home/robin/music/Cap'n Jazz/Analphabetapolothology (Disc 1)"
p273
aS'/home/robin/music/Animal Collective/Merriweather Post Pavilion'
p274
aS'/home/robin/music/Bomb the Music Industry!/Album Minus Band MP3'
p275
aS'/home/robin/music/Wu-Tang Clan/Enter the Wu-Tang Clan (36 Chambers)'
p276
aS'/home/robin/music/Kotaro Oshio/2002 Kotaro Oshio - Starting Point'
p277
aS"/home/robin/music/Phoenix/It's Never Been Like That"
p278
aS'/home/robin/music/Flight of the Conchords/Flight of the Conchords'
p279
aS'/home/robin/music/Vampire Weekend/Contra'
p280
aS'/home/robin/music/Rachmaninov Piano Concerto Nos.1 & 2'
p281
aS'/home/robin/music/Toe/New Sentimentality'
p282
aS'/home/robin/music/Kotaro Oshio/2001 Kotaro Oshio - Love Strings'
p283
aS'/home/robin/music/Toe/Songs, Ideas We Forgot'
p284
aS'/home/robin/music/Bach/Mass in B Minor'
p285
aS'/home/robin/music/The National/The National'
p286
aS'/home/robin/music/Brian Eno/Ambient 1 - Music for Airports'
p287
aS"/home/robin/music/Cap'n Jazz"
p288
aS'/home/robin/music/Stars/Heart'
p289
aS'/home/robin/music/Animal Collective/Here Comes The Indian'
p290
aS"/home/robin/music/World's end girlfriend/Dream's End Come True"
p291
aS'/home/robin/music/Animal Collective/Fall Be Kind'
p292
aS'/home/robin/music/Radiohead/In Rainbows/Disc 2'
p293
aS'/home/robin/music/Pains of Being Pure at Heart/The Pains of Being Pure at Heart'
p294
aS'/home/robin/music/Kashiwa Daisuke/April.#02'
p295
aS'/home/robin/music/Snowing/i could do whatever'
p296
aS'/home/robin/music/Nomak/Dynamic Meditation Instrumental Limited'
p297
aS'/home/robin/music/miss A/Bad But Good (Single)'
p298
aS'/home/robin/music/Compilations/Modal Soul Classics II- Dedicated to Nujabes'
p299
aS'/home/robin/music/Kind of Like Spitting/You Secretly Want Me Dead'
p300
aS'/home/robin/music/WHY_/Alopecia'
p301
aS'/home/robin/music/Modest Mouse/The Moon & Antarctica'
p302
aS'/home/robin/music/Four Tet/There Is Love In You'
p303
aS'/home/robin/music/Bomb the Music Industry!/Album Minus Band'
p304
aS'/home/robin/music/\xe6\x8a\xbc\xe5\xb0\xbe\xe3\x82\xb3\xe3\x83\xbc\xe3\x82\xbf\xe3\x83\xad\xe3\x83\xbc/Starting Point'
p305
aS"/home/robin/music/Why/Almost Live From Eli's Live Room"
p306
aS'/home/robin/music/\xe6\x8a\xbc\xe5\xb0\xbe\xe3\x82\xb3\xe3\x83\xbc\xe3\x82\xbf\xe3\x83\xad\xe3\x83\xbc/Bolero!- Be HAPPY LIVE'
p307
aS'/home/robin/music/Shugo Tokumaru/Port Entropy'
p308
aS'/home/robin/music/Compilations/Hyde Out Productions- 2nd Collection'
p309
aS'/home/robin/music/The Antlers/Hospice'
p310
aS'/home/robin/music/Johann Sebastian Bach'
p311
aS'/home/robin/music/Compilations/Samurai Champloo Music Record _KATANA_'
p312
aS'/home/robin/music/Ratatat/Ratatat Remixes Mixtape Volume 2'
p313
aS'/home/robin/music/\xe6\xa4\x8e\xe5\x90\x8d\xe6\x9e\x97\xe6\xaa\x8e/\xe6\x98\xa0\xe6\x97\xa5\xe7\xb4\x85\xe3\x81\xae\xe8\x8a\xb1'
p314
aS'/home/robin/music/The National/The Alligator'
p315
aS'/home/robin/music/\xe6\x8a\xbc\xe5\xb0\xbe\xe3\x82\xb3\xe3\x83\xbc\xe3\x82\xbf\xe3\x83\xad\xe3\x83\xbc/Love Strings'
p316
aS'/home/robin/music/James Blake/Klavierwerke EP'
p317
aS'/home/robin/music/Wu\xe2\x80\x90Tang Clan/Enter the Wu-Tang- 36 Chambers'
p318
aS'/home/robin/music/Tokyo Philharmonic Orchestra/Suzumiya Haruhi no Gensou'
p319
aS'/home/robin/music/MGMT/Congratulations'
p320
aNaS'/home/robin/music/Kind of Like Spitting/The Thrill of the Hunt'
p321
aS'/home/robin/music/Snowing/I Could Do Whatever I Wanted If I Wanted'
p322
aS'/home/robin/music/Radiohead/OK Computer'
p323
aS'/home/robin/music/Tsutchie/Samurai Champloo Music Record 2- Playlist'
p324
aS'/home/robin/music/Bach/Cello Suites'
p325
aS"/home/robin/music/Girls' Generation/Gee"
p326
aS'/home/robin/music/Flight of the Chonchords/Flight of the Chonchords'
p327
aS'/home/robin/music/Nujabes/First Collection'
p328
aS'/home/robin/music/t\xc3\xa9/\xe3\x81\xbe\xe3\x81\x97\xe3\x81\xa6\xe3\x80\x81\xe5\xbf\x83\xe3\x81\xa8\xe4\xba\x94\xe6\x84\x9f\xe3\x81\x8c\xe4\xb8\x80\xe8\x87\xb4\xe3\x81\x99\xe3\x82\x8b\xe3\x81\xaa\xe3\x82\x89\xe5\x85\xa8\xe3\x81\xa6\xe6\x9c\x80\xe4\xb8\x8a\xe3\x81\xae\xe3\x80\x8e\xe9\x9f\xb3\xe6\xa5\xbd\xe3\x80\x8f\xe3\x81\xab\xe5\xa4\x89\xe3\x81\x9a\xe3\x82\x8b\xe3\x80\x82'
p329
aS'/home/robin/music/Andrew Jackson/Only God can Judge Me'
p330
aS'/home/robin/music/Ludwig van Beethoven/Missa Solemnis (Orchestre des Champs \xc3\x89lys\xc3\xa9es feat. conductor- Philippe Herreweghe)'
p331
aS'/home/robin/music/Sigur R\xc3\xb3s/Me\xc3\xb0 su\xc3\xb0 \xc3\xad eyrum vi\xc3\xb0 spilum endalaust'
p332
aS'/home/robin/music/Miles Davis/Kind of Blue'
p333
aS'/home/robin/music/The Pains of Being Pure at Heart/Higher Than the Stars'
p334
aS"/home/robin/music/Nomak/Wonderin' View"
p335
aS'/home/robin/music/Brown Eyed Girls/Vol.1 Your Story'
p336
aS'/home/robin/music/Bomb the Music Industry!/To Leave Or Die In Long Island'
p337
aS'/home/robin/music/This Will Destroy You/Young Mountain EP'
p338
aS'/home/robin/music/Nujabes/Modal Soul Classics II'
p339
aS'/home/robin/music/The Cure/Gone!'
p340
aS'/home/robin/music/James Blake/James Blake'
p341
aS'/home/robin/music/Compilations/Dark Was the Night'
p342
aS'/home/robin/music/Grouper/Dragging a Dead Deer up a Hill'
p343
aS'/home/robin/music/Toe/Pele_Toe Split'
p344
aS'/home/robin/music/Various Artists/Bach, Brahms & Tchaikovsky_ Violin Concertos _ Beethoven_ Romances (David Oistrakh)'
p345
aS'/home/robin/music/Jon Coltrane/A Love Supreme'
p346
aS'/home/robin/music/Shadow of the Colossus OST'
p347
atp348
Rp349
s.